target datalayout = "e-m:e-p270:32:32-p271:32:32-p272:64:64-i64:64-i128:128-f80:128-n8:16:32:64-S128"
target triple = "x86_64-pc-linux-gnu"

%struct.archive_rb_tree = type { ptr, ptr }
%struct.archive_rb_node = type { [2 x ptr], i64 }

; Function Attrs: nounwind uwtable
define dso_local ptr @__archive_rb_tree_iterate(ptr noundef %0, ptr noundef %1, i32 noundef %2) #0 {
  %4 = alloca ptr, align 8
  %5 = alloca ptr, align 8
  %6 = alloca ptr, align 8
  %7 = alloca i32, align 4
  %8 = alloca i32, align 4
  store ptr %0, ptr %5, align 8
  store ptr %1, ptr %6, align 8
  store i32 %2, ptr %7, align 4
  %9 = load i32, ptr %7, align 4
  %10 = xor i32 %9, 1
  store i32 %10, ptr %8, align 4
  %11 = load ptr, ptr %6, align 8
  %12 = icmp eq ptr %11, null
  br i1 %12, label %13, label %39

13:                                               ; preds = %3
  %14 = load ptr, ptr %5, align 8
  %15 = getelementptr inbounds %struct.archive_rb_tree, ptr %14, i32 0, i32 0
  %16 = load ptr, ptr %15, align 8
  store ptr %16, ptr %6, align 8
  %17 = load ptr, ptr %6, align 8
  %18 = icmp eq ptr %17, null
  br i1 %18, label %19, label %20

19:                                               ; preds = %13
  store ptr null, ptr %4, align 8
  br label %102

20:                                               ; preds = %13
  br label %21

21:                                               ; preds = %30, %20
  %22 = load ptr, ptr %6, align 8
  %23 = getelementptr inbounds %struct.archive_rb_node, ptr %22, i32 0, i32 0
  %24 = load i32, ptr %7, align 4
  %25 = zext i32 %24 to i64
  %26 = getelementptr inbounds [2 x ptr], ptr %23, i64 0, i64 %25
  %27 = load ptr, ptr %26, align 8
  %28 = icmp eq ptr %27, null
  %29 = xor i1 %28, true
  br i1 %29, label %30, label %37

30:                                               ; preds = %21
  %31 = load ptr, ptr %6, align 8
  %32 = getelementptr inbounds %struct.archive_rb_node, ptr %31, i32 0, i32 0
  %33 = load i32, ptr %7, align 4
  %34 = zext i32 %33 to i64
  %35 = getelementptr inbounds [2 x ptr], ptr %32, i64 0, i64 %34
  %36 = load ptr, ptr %35, align 8
  store ptr %36, ptr %6, align 8
  br label %21, !llvm.loop !10

37:                                               ; preds = %21
  %38 = load ptr, ptr %6, align 8
  store ptr %38, ptr %4, align 8
  br label %102

39:                                               ; preds = %3
  %40 = load ptr, ptr %6, align 8
  %41 = getelementptr inbounds %struct.archive_rb_node, ptr %40, i32 0, i32 0
  %42 = load i32, ptr %7, align 4
  %43 = zext i32 %42 to i64
  %44 = getelementptr inbounds [2 x ptr], ptr %41, i64 0, i64 %43
  %45 = load ptr, ptr %44, align 8
  %46 = icmp eq ptr %45, null
  br i1 %46, label %47, label %77

47:                                               ; preds = %39
  br label %48

48:                                               ; preds = %70, %47
  %49 = load ptr, ptr %5, align 8
  %50 = getelementptr inbounds %struct.archive_rb_tree, ptr %49, i32 0, i32 0
  %51 = load ptr, ptr %50, align 8
  %52 = load ptr, ptr %6, align 8
  %53 = icmp eq ptr %51, %52
  %54 = xor i1 %53, true
  br i1 %54, label %55, label %76

55:                                               ; preds = %48
  %56 = load i32, ptr %8, align 4
  %57 = load ptr, ptr %6, align 8
  %58 = getelementptr inbounds %struct.archive_rb_node, ptr %57, i32 0, i32 1
  %59 = load i64, ptr %58, align 8
  %60 = and i64 %59, 2
  %61 = icmp ne i64 %60, 0
  %62 = select i1 %61, i32 1, i32 0
  %63 = icmp eq i32 %56, %62
  br i1 %63, label %64, label %70

64:                                               ; preds = %55
  %65 = load ptr, ptr %6, align 8
  %66 = getelementptr inbounds %struct.archive_rb_node, ptr %65, i32 0, i32 1
  %67 = load i64, ptr %66, align 8
  %68 = and i64 %67, -4
  %69 = inttoptr i64 %68 to ptr
  store ptr %69, ptr %4, align 8
  br label %102

70:                                               ; preds = %55
  %71 = load ptr, ptr %6, align 8
  %72 = getelementptr inbounds %struct.archive_rb_node, ptr %71, i32 0, i32 1
  %73 = load i64, ptr %72, align 8
  %74 = and i64 %73, -4
  %75 = inttoptr i64 %74 to ptr
  store ptr %75, ptr %6, align 8
  br label %48, !llvm.loop !11

76:                                               ; preds = %48
  store ptr null, ptr %4, align 8
  br label %102

77:                                               ; preds = %39
  %78 = load ptr, ptr %6, align 8
  %79 = getelementptr inbounds %struct.archive_rb_node, ptr %78, i32 0, i32 0
  %80 = load i32, ptr %7, align 4
  %81 = zext i32 %80 to i64
  %82 = getelementptr inbounds [2 x ptr], ptr %79, i64 0, i64 %81
  %83 = load ptr, ptr %82, align 8
  store ptr %83, ptr %6, align 8
  br label %84

84:                                               ; preds = %93, %77
  %85 = load ptr, ptr %6, align 8
  %86 = getelementptr inbounds %struct.archive_rb_node, ptr %85, i32 0, i32 0
  %87 = load i32, ptr %8, align 4
  %88 = zext i32 %87 to i64
  %89 = getelementptr inbounds [2 x ptr], ptr %86, i64 0, i64 %88
  %90 = load ptr, ptr %89, align 8
  %91 = icmp eq ptr %90, null
  %92 = xor i1 %91, true
  br i1 %92, label %93, label %100

93:                                               ; preds = %84
  %94 = load ptr, ptr %6, align 8
  %95 = getelementptr inbounds %struct.archive_rb_node, ptr %94, i32 0, i32 0
  %96 = load i32, ptr %8, align 4
  %97 = zext i32 %96 to i64
  %98 = getelementptr inbounds [2 x ptr], ptr %95, i64 0, i64 %97
  %99 = load ptr, ptr %98, align 8
  store ptr %99, ptr %6, align 8
  br label %84, !llvm.loop !12

100:                                              ; preds = %84
  %101 = load ptr, ptr %6, align 8
  store ptr %101, ptr %4, align 8
  br label %102

102:                                              ; preds = %100, %76, %64, %37, %19
  %103 = load ptr, ptr %4, align 8
  ret ptr %103
}