; Function Attrs: nofree norecurse nosync nounwind memory(read, inaccessiblemem: none) uwtable
define dso_local ptr @__archive_rb_tree_iterate(ptr noundef readonly captures(none) %0, ptr noundef readonly %1, i32 noundef %2) local_unnamed_addr #3 {
  %4 = xor i32 %2, 1
  %5 = icmp eq ptr %1, null
  br i1 %5, label %6, label %13

6:                                                ; preds = %3
  %7 = load ptr, ptr %0, align 8
  %8 = icmp eq ptr %7, null
  br i1 %8, label %.loopexit, label %.preheader

.preheader:                                       ; preds = %6
  %9 = zext i32 %2 to i64
  br label %10

10:                                               ; preds = %.preheader, %10
  %.024 = phi ptr [ %12, %10 ], [ %7, %.preheader ]
  %11 = getelementptr inbounds nuw [2 x ptr], ptr %.024, i64 0, i64 %9
  %12 = load ptr, ptr %11, align 8
  %.not30 = icmp eq ptr %12, null
  br i1 %.not30, label %.loopexit, label %10, !llvm.loop !12

13:                                               ; preds = %3
  %14 = zext i32 %2 to i64
  %15 = getelementptr inbounds nuw [2 x ptr], ptr %1, i64 0, i64 %14
  %16 = load ptr, ptr %15, align 8
  %17 = icmp eq ptr %16, null
  br i1 %17, label %.preheader31, label %.preheader33

.preheader33:                                     ; preds = %13
  %18 = zext i32 %4 to i64
  br label %29

.preheader31:                                     ; preds = %13
  %19 = load ptr, ptr %0, align 8
  %.not2835 = icmp eq ptr %19, %1
  br i1 %.not2835, label %.loopexit, label %.lr.ph

.lr.ph:                                           ; preds = %.preheader31, %28
  %.136 = phi ptr [ %27, %28 ], [ %1, %.preheader31 ]
  %20 = getelementptr inbounds nuw i8, ptr %.136, i64 16
  %21 = load i64, ptr %20, align 8
  %22 = trunc i64 %21 to i32
  %23 = lshr i32 %22, 1
  %24 = and i32 %23, 1
  %25 = icmp eq i32 %4, %24
  %26 = and i64 %21, -4
  %27 = inttoptr i64 %26 to ptr
  br i1 %25, label %.loopexit, label %28

28:                                               ; preds = %.lr.ph
  %.not28 = icmp eq ptr %19, %27
  br i1 %.not28, label %.loopexit, label %.lr.ph, !llvm.loop !10

29:                                               ; preds = %.preheader33, %29
  %.2 = phi ptr [ %31, %29 ], [ %16, %.preheader33 ]
  %30 = getelementptr inbounds nuw [2 x ptr], ptr %.2, i64 0, i64 %18
  %31 = load ptr, ptr %30, align 8
  %.not = icmp eq ptr %31, null
  br i1 %.not, label %.loopexit, label %29, !llvm.loop !11

.loopexit:                                        ; preds = %29, %28, %.lr.ph, %10, %.preheader31, %6
  %.0 = phi ptr [ null, %6 ], [ null, %.preheader31 ], [ %.024, %10 ], [ null, %28 ], [ %27, %.lr.ph ], [ %.2, %29 ]
  ret ptr %.0
}